; Function Attrs: nounwind uwtable
define ptr @Gia_ManDupCofAll(ptr noundef %0, i32 noundef %1, i32 noundef %2) local_unnamed_addr #0 {
  %4 = tail call ptr @Gia_ManCofVars(ptr noundef %0, i32 noundef %1)
  %5 = tail call ptr @Gia_ManDupCofAllInt(ptr noundef %0, ptr noundef %4, i32 noundef %2)
  %6 = getelementptr inbounds nuw i8, ptr %4, i64 8
  %7 = load ptr, ptr %6, align 8, !tbaa !32
  %.not.i = icmp eq ptr %7, null
  br i1 %.not.i, label %Vec_IntFree.exit, label %8

8:                                                ; preds = %3
  tail call void @free(ptr noundef nonnull %7) #27
  br label %Vec_IntFree.exit

Vec_IntFree.exit:                                 ; preds = %3, %8
  tail call void @free(ptr noundef nonnull %4) #27
  ret ptr %5
}